; Function Attrs: nounwind sspstrong uwtable
define internal fastcc i64 @var_name(i64 noundef %0) unnamed_addr #0 {
  %.not = icmp eq i64 %0, 0
  br i1 %.not, label %6, label %2

2:                                                ; preds = %1
  %3 = tail call i64 @rb_id2str(i64 noundef %0) #11
  %.not5 = icmp eq i64 %3, 0
  br i1 %.not5, label %6, label %4

4:                                                ; preds = %2
  %5 = tail call i64 @rb_id2sym(i64 noundef %0) #11
  br label %6

6:                                                ; preds = %2, %1, %4
  %.0 = phi i64 [ %5, %4 ], [ 4, %1 ], [ 4, %2 ]
  ret i64 %.0
}